; Function Attrs: mustprogress nounwind uwtable
define internal fastcc void @_ZNSt13unordered_mapIN32pxrInternal_v0_24__pxrReserved__7UsdPrimENS0_7VtArrayISt10shared_ptrINS0_12_GLOBAL__N_116_SkinningAdapterEEEENS4_16_HashComparePrimESt8equal_toIS1_ESaISt4pairIKS1_S7_EEED2Ev(ptr noundef nonnull align 8 dereferenceable(56) %0) unnamed_addr #3 align 2 personality ptr @__gxx_personality_v0 {
  %2 = getelementptr inbounds nuw i8, ptr %0, i64 16
  %.val.i.i = load ptr, ptr %2, align 8
  %.not1.i.i.i = icmp eq ptr %.val.i.i, null
  br i1 %.not1.i.i.i, label %_ZNSt10_HashtableIN32pxrInternal_v0_24__pxrReserved__7UsdPrimESt4pairIKS1_NS0_7VtArrayISt10shared_ptrINS0_12_GLOBAL__N_116_SkinningAdapterEEEEESaISA_ENSt8__detail10_Select1stESt8equal_toIS1_ENS6_16_HashComparePrimENSC_18_Mod_range_hashingENSC_20_Default_ranged_hashENSC_20_Prime_rehash_policyENSC_17_Hashtable_traitsILb1ELb0ELb1EEEE5clearEv.exit.i, label %.lr.ph.i.i.i

.lr.ph.i.i.i:                                     ; preds = %1, %.lr.ph.i.i.i
  %.02.i.i.i = phi ptr [ %.0.val.i.i.i, %.lr.ph.i.i.i ], [ %.val.i.i, %1 ]
  %.0.val.i.i.i = load ptr, ptr %.02.i.i.i, align 8
  tail call fastcc void @_ZNSt8__detail16_Hashtable_allocISaINS_10_Hash_nodeISt4pairIKN32pxrInternal_v0_24__pxrReserved__7UsdPrimENS3_7VtArrayISt10shared_ptrINS3_12_GLOBAL__N_116_SkinningAdapterEEEEELb1EEEEE18_M_deallocate_nodeEPSD_(ptr noundef %.02.i.i.i)
  %.not.i.i.i = icmp eq ptr %.0.val.i.i.i, null
  br i1 %.not.i.i.i, label %_ZNSt10_HashtableIN32pxrInternal_v0_24__pxrReserved__7UsdPrimESt4pairIKS1_NS0_7VtArrayISt10shared_ptrINS0_12_GLOBAL__N_116_SkinningAdapterEEEEESaISA_ENSt8__detail10_Select1stESt8equal_toIS1_ENS6_16_HashComparePrimENSC_18_Mod_range_hashingENSC_20_Default_ranged_hashENSC_20_Prime_rehash_policyENSC_17_Hashtable_traitsILb1ELb0ELb1EEEE5clearEv.exit.i, label %.lr.ph.i.i.i, !llvm.loop !147

_ZNSt10_HashtableIN32pxrInternal_v0_24__pxrReserved__7UsdPrimESt4pairIKS1_NS0_7VtArrayISt10shared_ptrINS0_12_GLOBAL__N_116_SkinningAdapterEEEEESaISA_ENSt8__detail10_Select1stESt8equal_toIS1_ENS6_16_HashComparePrimENSC_18_Mod_range_hashingENSC_20_Default_ranged_hashENSC_20_Prime_rehash_policyENSC_17_Hashtable_traitsILb1ELb0ELb1EEEE5clearEv.exit.i: ; preds = %.lr.ph.i.i.i, %1
  %3 = load ptr, ptr %0, align 8
  %4 = getelementptr inbounds nuw i8, ptr %0, i64 8
  %5 = load i64, ptr %4, align 8
  %6 = shl i64 %5, 3
  tail call void @llvm.memset.p0.i64(ptr align 8 %3, i8 0, i64 %6, i1 false)
  tail call void @llvm.memset.p0.i64(ptr noundef nonnull align 8 dereferenceable(16) %2, i8 0, i64 16, i1 false)
  %7 = load ptr, ptr %0, align 8
  %8 = getelementptr inbounds nuw i8, ptr %0, i64 48
  %9 = icmp eq ptr %7, %8
  br i1 %9, label %_ZNSt10_HashtableIN32pxrInternal_v0_24__pxrReserved__7UsdPrimESt4pairIKS1_NS0_7VtArrayISt10shared_ptrINS0_12_GLOBAL__N_116_SkinningAdapterEEEEESaISA_ENSt8__detail10_Select1stESt8equal_toIS1_ENS6_16_HashComparePrimENSC_18_Mod_range_hashingENSC_20_Default_ranged_hashENSC_20_Prime_rehash_policyENSC_17_Hashtable_traitsILb1ELb0ELb1EEEED2Ev.exit, label %10

10:                                               ; preds = %_ZNSt10_HashtableIN32pxrInternal_v0_24__pxrReserved__7UsdPrimESt4pairIKS1_NS0_7VtArrayISt10shared_ptrINS0_12_GLOBAL__N_116_SkinningAdapterEEEEESaISA_ENSt8__detail10_Select1stESt8equal_toIS1_ENS6_16_HashComparePrimENSC_18_Mod_range_hashingENSC_20_Default_ranged_hashENSC_20_Prime_rehash_policyENSC_17_Hashtable_traitsILb1ELb0ELb1EEEE5clearEv.exit.i
  %11 = load i64, ptr %4, align 8
  %12 = shl i64 %11, 3
  tail call void @_ZdlPvm(ptr noundef %7, i64 noundef %12) #26
  br label %_ZNSt10_HashtableIN32pxrInternal_v0_24__pxrReserved__7UsdPrimESt4pairIKS1_NS0_7VtArrayISt10shared_ptrINS0_12_GLOBAL__N_116_SkinningAdapterEEEEESaISA_ENSt8__detail10_Select1stESt8equal_toIS1_ENS6_16_HashComparePrimENSC_18_Mod_range_hashingENSC_20_Default_ranged_hashENSC_20_Prime_rehash_policyENSC_17_Hashtable_traitsILb1ELb0ELb1EEEED2Ev.exit

_ZNSt10_HashtableIN32pxrInternal_v0_24__pxrReserved__7UsdPrimESt4pairIKS1_NS0_7VtArrayISt10shared_ptrINS0_12_GLOBAL__N_116_SkinningAdapterEEEEESaISA_ENSt8__detail10_Select1stESt8equal_toIS1_ENS6_16_HashComparePrimENSC_18_Mod_range_hashingENSC_20_Default_ranged_hashENSC_20_Prime_rehash_policyENSC_17_Hashtable_traitsILb1ELb0ELb1EEEED2Ev.exit: ; preds = %_ZNSt10_HashtableIN32pxrInternal_v0_24__pxrReserved__7UsdPrimESt4pairIKS1_NS0_7VtArrayISt10shared_ptrINS0_12_GLOBAL__N_116_SkinningAdapterEEEEESaISA_ENSt8__detail10_Select1stESt8equal_toIS1_ENS6_16_HashComparePrimENSC_18_Mod_range_hashingENSC_20_Default_ranged_hashENSC_20_Prime_rehash_policyENSC_17_Hashtable_traitsILb1ELb0ELb1EEEE5clearEv.exit.i, %10
  ret void
}